target datalayout = "e-m:e-p270:32:32-p271:32:32-p272:64:64-i64:64-i128:128-f80:128-n8:16:32:64-S128"
target triple = "x86_64-pc-linux-gnu"

%struct.hb_object_header_t = type { %struct.hb_reference_count_t, %struct.hb_atomic_int_t, %struct.hb_atomic_ptr_t }
%struct.hb_reference_count_t = type { %struct.hb_atomic_int_t }
%struct.hb_atomic_ptr_t = type { ptr }
%struct.hb_atomic_int_t = type { i32 }
%"struct.OT::IntType.139" = type { %struct.BEInt.140 }
%struct.BEInt.140 = type { [2 x i8] }
%struct.hb_sparseset_t = type { %struct.hb_object_header_t, %struct.hb_bit_set_invertible_t }
%struct.hb_bit_set_invertible_t = type <{ %struct.hb_bit_set_t, i8, [7 x i8] }>
%struct.hb_bit_set_t = type { i8, i32, %struct.hb_atomic_int_t, %struct.hb_vector_t.190, %struct.hb_vector_t.191 }
%struct.hb_vector_t.190 = type { i32, i32, ptr }
%struct.hb_vector_t.191 = type { i32, i32, ptr }

; Function Attrs: mustprogress nounwind uwtable
define linkonce_odr hidden noundef zeroext i16 @_ZNK5BEIntItLi2EEcvtEv(ptr noundef nonnull align 1 dereferenceable(2) %0) #3 comdat align 2 {
  %2 = alloca ptr, align 8
  store ptr %0, ptr %2, align 8
  %3 = load ptr, ptr %2, align 8
  %4 = getelementptr inbounds %struct.BEInt.140, ptr %3, i32 0, i32 0
  %5 = getelementptr inbounds [2 x i8], ptr %4, i64 0, i64 0
  %6 = load i8, ptr %5, align 1
  %7 = zext i8 %6 to i32
  %8 = shl i32 %7, 8
  %9 = getelementptr inbounds %struct.BEInt.140, ptr %3, i32 0, i32 0
  %10 = getelementptr inbounds [2 x i8], ptr %9, i64 0, i64 1
  %11 = load i8, ptr %10, align 1
  %12 = zext i8 %11 to i32
  %13 = add nsw i32 %8, %12
  %14 = trunc i32 %13 to i16
  ret i16 %14
}

; Function Attrs: mustprogress uwtable
define linkonce_odr hidden void @_ZN14hb_sparseset_tI23hb_bit_set_invertible_tE3addEj(ptr noundef nonnull align 8 dereferenceable(72) %0, i32 noundef %1) #0 comdat align 2 {
  %3 = alloca ptr, align 8
  %4 = alloca i32, align 4
  store ptr %0, ptr %3, align 8
  store i32 %1, ptr %4, align 4
  %5 = load ptr, ptr %3, align 8
  %6 = getelementptr inbounds %struct.hb_sparseset_t, ptr %5, i32 0, i32 1
  %7 = load i32, ptr %4, align 4
  call void @_ZN23hb_bit_set_invertible_t3addEj(ptr noundef nonnull align 8 dereferenceable(49) %6, i32 noundef %7)
  ret void
}

; Function Attrs: mustprogress nounwind uwtable
define linkonce_odr hidden noundef i32 @_ZNK2OT7IntTypeItLj2EEcvjEv(ptr noundef nonnull align 1 dereferenceable(2) %0) #3 comdat align 2 {
  %2 = alloca ptr, align 8
  store ptr %0, ptr %2, align 8
  %3 = load ptr, ptr %2, align 8
  %4 = getelementptr inbounds %"struct.OT::IntType.139", ptr %3, i32 0, i32 0
  %5 = call noundef zeroext i16 @_ZNK5BEIntItLi2EEcvtEv(ptr noundef nonnull align 1 dereferenceable(2) %4)
  %6 = zext i16 %5 to i32
  ret i32 %6
}

; Function Attrs: mustprogress uwtable
define internal void @_ZN2OTL17intersected_glyphEPK8hb_set_tPKvjPS0_Pv(ptr noundef %0, ptr noundef %1, i32 noundef %2, ptr noundef %3, ptr noundef %4) #0 {
  %6 = alloca ptr, align 8
  %7 = alloca ptr, align 8
  %8 = alloca i32, align 4
  %9 = alloca ptr, align 8
  %10 = alloca ptr, align 8
  %11 = alloca i32, align 4
  store ptr %0, ptr %6, align 8
  store ptr %1, ptr %7, align 8
  store i32 %2, ptr %8, align 4
  store ptr %3, ptr %9, align 8
  store ptr %4, ptr %10, align 8
  %12 = load ptr, ptr %7, align 8
  %13 = load i32, ptr %8, align 4
  %14 = zext i32 %13 to i64
  %15 = getelementptr inbounds %"struct.OT::IntType.139", ptr %12, i64 %14
  %16 = call noundef i32 @_ZNK2OT7IntTypeItLj2EEcvjEv(ptr noundef nonnull align 1 dereferenceable(2) %15)
  store i32 %16, ptr %11, align 4
  %17 = load ptr, ptr %9, align 8
  %18 = load i32, ptr %11, align 4
  call void @_ZN14hb_sparseset_tI23hb_bit_set_invertible_tE3addEj(ptr noundef nonnull align 8 dereferenceable(72) %17, i32 noundef %18)
  ret void
}