; Function Attrs: mustprogress uwtable
define internal void @_ZN2OTL17intersected_glyphEPK8hb_set_tPKvjPS0_Pv(ptr nocapture readnone %0, ptr nocapture noundef readonly %1, i32 noundef %2, ptr noundef %3, ptr nocapture readnone %4) #0 {
  %6 = zext i32 %2 to i64
  %7 = getelementptr inbounds %"struct.OT::IntType.139", ptr %1, i64 %6
  %8 = load i8, ptr %7, align 1
  %9 = zext i8 %8 to i32
  %10 = shl nuw nsw i32 %9, 8
  %11 = getelementptr inbounds i8, ptr %7, i64 1
  %12 = load i8, ptr %11, align 1
  %13 = zext i8 %12 to i32
  %14 = or disjoint i32 %10, %13
  %15 = getelementptr inbounds i8, ptr %3, i64 16
  tail call void @_ZN23hb_bit_set_invertible_t3addEj(ptr noundef nonnull align 8 dereferenceable(49) %15, i32 noundef %14)
  ret void
}